; Function Attrs: mustprogress uwtable
define hidden void @_ZN3opt7context9to_stringB5cxx11Ev(ptr noalias sret(%"class.std::__cxx11::basic_string") align 8 %agg.result, ptr noundef nonnull align 8 dereferenceable(792) %this) local_unnamed_addr #3 align 2 {
entry:
  %m_pp_wcnf = getelementptr inbounds i8, ptr %this, i64 732
  %0 = load i8, ptr %m_pp_wcnf, align 4
  %1 = and i8 %0, 1
  %tobool.not = icmp eq i8 %1, 0
  br i1 %tobool.not, label %if.end, label %if.then

if.then:                                          ; preds = %entry
  tail call void @_ZN3opt7context7to_wcnfB5cxx11Ev(ptr sret(%"class.std::__cxx11::basic_string") align 8 %agg.result, ptr noundef nonnull align 8 dereferenceable(792) %this)
  br label %return

if.end:                                           ; preds = %entry
  %m_hard = getelementptr inbounds i8, ptr %this, i64 552
  %m_objectives = getelementptr inbounds i8, ptr %this, i64 584
  tail call void @_ZNK3opt7context9to_stringB5cxx11EbRK10ref_vectorI4expr11ast_managerERK6vectorINS0_9objectiveELb1EjE(ptr sret(%"class.std::__cxx11::basic_string") align 8 %agg.result, ptr noundef nonnull align 8 dereferenceable(792) %this, i1 noundef zeroext false, ptr noundef nonnull align 8 dereferenceable(16) %m_hard, ptr noundef nonnull align 8 dereferenceable(8) %m_objectives)
  br label %return

return:                                           ; preds = %if.end, %if.then
  ret void
}